target datalayout = "e-m:e-p270:32:32-p271:32:32-p272:64:64-i64:64-i128:128-f80:128-n8:16:32:64-S128"
target triple = "x86_64-pc-linux-gnu"

%struct.BufferManagerRelation = type { ptr, ptr, i8 }

@LocalBufferBlockPointers = external global ptr, align 8
@BufferBlocks = external global ptr, align 8

; Function Attrs: inlinehint nounwind uwtable
define internal ptr @BufferGetBlock(i32 noundef %0) #2 {
  %2 = alloca ptr, align 8
  %3 = alloca i32, align 4
  store i32 %0, ptr %3, align 4
  %4 = load i32, ptr %3, align 4
  %5 = icmp slt i32 %4, 0
  br i1 %5, label %6, label %14

6:                                                ; preds = %1
  %7 = load ptr, ptr @LocalBufferBlockPointers, align 8
  %8 = load i32, ptr %3, align 4
  %9 = sub i32 0, %8
  %10 = sub i32 %9, 1
  %11 = sext i32 %10 to i64
  %12 = getelementptr inbounds ptr, ptr %7, i64 %11
  %13 = load ptr, ptr %12, align 8
  store ptr %13, ptr %2, align 8
  br label %21

14:                                               ; preds = %1
  %15 = load ptr, ptr @BufferBlocks, align 8
  %16 = load i32, ptr %3, align 4
  %17 = sub i32 %16, 1
  %18 = sext i32 %17 to i64
  %19 = mul i64 %18, 8192
  %20 = getelementptr inbounds nuw i8, ptr %15, i64 %19
  store ptr %20, ptr %2, align 8
  br label %21

21:                                               ; preds = %14, %6
  %22 = load ptr, ptr %2, align 8
  ret ptr %22
}

; Function Attrs: inlinehint nounwind uwtable
define internal ptr @BufferGetPage(i32 noundef %0) #2 {
  %2 = alloca i32, align 4
  store i32 %0, ptr %2, align 4
  %3 = load i32, ptr %2, align 4
  %4 = call ptr @BufferGetBlock(i32 noundef %3)
  ret ptr %4
}

; Function Attrs: nounwind uwtable
define dso_local i32 @GinNewBuffer(ptr noundef %0) #0 {
  %2 = alloca i32, align 4
  %3 = alloca ptr, align 8
  %4 = alloca i32, align 4
  %5 = alloca i32, align 4
  %6 = alloca i32, align 4
  %7 = alloca %struct.BufferManagerRelation, align 8
  store ptr %0, ptr %3, align 8
  call void @llvm.lifetime.start.p0(i64 4, ptr %4) #7
  br label %8

8:                                                ; preds = %32, %1
  call void @llvm.lifetime.start.p0(i64 4, ptr %5) #7
  %9 = load ptr, ptr %3, align 8
  %10 = call i32 @GetFreeIndexPage(ptr noundef %9)
  store i32 %10, ptr %5, align 4
  %11 = load i32, ptr %5, align 4
  %12 = icmp eq i32 %11, -1
  br i1 %12, label %13, label %14

13:                                               ; preds = %8
  store i32 2, ptr %6, align 4
  br label %30

14:                                               ; preds = %8
  %15 = load ptr, ptr %3, align 8
  %16 = load i32, ptr %5, align 4
  %17 = call i32 @ReadBuffer(ptr noundef %15, i32 noundef %16)
  store i32 %17, ptr %4, align 4
  %18 = load i32, ptr %4, align 4
  %19 = call zeroext i1 @ConditionalLockBuffer(i32 noundef %18)
  br i1 %19, label %20, label %28

20:                                               ; preds = %14
  %21 = load i32, ptr %4, align 4
  %22 = call ptr @BufferGetPage(i32 noundef %21)
  %23 = call zeroext i1 @GinPageIsRecyclable(ptr noundef %22)
  br i1 %23, label %24, label %26

24:                                               ; preds = %20
  %25 = load i32, ptr %4, align 4
  store i32 %25, ptr %2, align 4
  store i32 1, ptr %6, align 4
  br label %30

26:                                               ; preds = %20
  %27 = load i32, ptr %4, align 4
  call void @LockBuffer(i32 noundef %27, i32 noundef 0)
  br label %28

28:                                               ; preds = %26, %14
  %29 = load i32, ptr %4, align 4
  call void @ReleaseBuffer(i32 noundef %29)
  store i32 0, ptr %6, align 4
  br label %30

30:                                               ; preds = %28, %24, %13
  call void @llvm.lifetime.end.p0(i64 4, ptr %5) #7
  %31 = load i32, ptr %6, align 4
  switch i32 %31, label %41 [
    i32 0, label %32
    i32 2, label %33
  ]

32:                                               ; preds = %30
  br label %8

33:                                               ; preds = %30
  %34 = getelementptr inbounds nuw %struct.BufferManagerRelation, ptr %7, i32 0, i32 0
  %35 = load ptr, ptr %3, align 8
  store ptr %35, ptr %34, align 8
  %36 = getelementptr inbounds nuw %struct.BufferManagerRelation, ptr %7, i32 0, i32 1
  store ptr null, ptr %36, align 8
  %37 = getelementptr inbounds nuw %struct.BufferManagerRelation, ptr %7, i32 0, i32 2
  store i8 0, ptr %37, align 8
  %38 = getelementptr i8, ptr %7, i64 17
  call void @llvm.memset.p0.i64(ptr align 1 %38, i8 0, i64 7, i1 false)
  %39 = call i32 @ExtendBufferedRel(ptr noundef byval(%struct.BufferManagerRelation) align 8 %7, i32 noundef 0, ptr noundef null, i32 noundef 8)
  store i32 %39, ptr %4, align 4
  %40 = load i32, ptr %4, align 4
  store i32 %40, ptr %2, align 4
  store i32 1, ptr %6, align 4
  br label %41

41:                                               ; preds = %33, %30
  call void @llvm.lifetime.end.p0(i64 4, ptr %4) #7
  %42 = load i32, ptr %2, align 4
  ret i32 %42
}