; Function Attrs: nounwind uwtable
define dso_local i32 @GinNewBuffer(ptr noundef %0) local_unnamed_addr #0 {
  %2 = alloca %struct.BufferManagerRelation, align 8
  %3 = tail call i32 @GetFreeIndexPage(ptr noundef %0) #7
  %4 = icmp eq i32 %3, -1
  br i1 %4, label %._crit_edge, label %.lr.ph

.lr.ph:                                           ; preds = %1, %24
  %5 = phi i32 [ %25, %24 ], [ %3, %1 ]
  %6 = tail call i32 @ReadBuffer(ptr noundef %0, i32 noundef %5) #7
  %7 = tail call zeroext i1 @ConditionalLockBuffer(i32 noundef %6) #7
  br i1 %7, label %8, label %24

8:                                                ; preds = %.lr.ph
  %9 = icmp slt i32 %6, 0
  br i1 %9, label %10, label %16

10:                                               ; preds = %8
  %11 = load ptr, ptr @LocalBufferBlockPointers, align 8
  %12 = xor i32 %6, -1
  %13 = zext nneg i32 %12 to i64
  %14 = getelementptr inbounds nuw ptr, ptr %11, i64 %13
  %15 = load ptr, ptr %14, align 8
  br label %BufferGetPage.exit

16:                                               ; preds = %8
  %17 = load ptr, ptr @BufferBlocks, align 8
  %18 = add nsw i32 %6, -1
  %19 = sext i32 %18 to i64
  %20 = shl nsw i64 %19, 13
  %21 = getelementptr inbounds nuw i8, ptr %17, i64 %20
  br label %BufferGetPage.exit

BufferGetPage.exit:                               ; preds = %10, %16
  %.0.i.i = phi ptr [ %15, %10 ], [ %21, %16 ]
  %22 = tail call zeroext i1 @GinPageIsRecyclable(ptr noundef %.0.i.i) #7
  br i1 %22, label %.thread, label %23

23:                                               ; preds = %BufferGetPage.exit
  tail call void @LockBuffer(i32 noundef %6, i32 noundef 0) #7
  br label %24

24:                                               ; preds = %.lr.ph, %23
  tail call void @ReleaseBuffer(i32 noundef %6) #7
  %25 = tail call i32 @GetFreeIndexPage(ptr noundef %0) #7
  %26 = icmp eq i32 %25, -1
  br i1 %26, label %._crit_edge, label %.lr.ph

._crit_edge:                                      ; preds = %24, %1
  store ptr %0, ptr %2, align 8
  %27 = getelementptr inbounds nuw i8, ptr %2, i64 8
  call void @llvm.memset.p0.i64(ptr noundef nonnull align 8 dereferenceable(16) %27, i8 0, i64 16, i1 false)
  %28 = tail call i32 @ExtendBufferedRel(ptr noundef nonnull byval(%struct.BufferManagerRelation) align 8 %2, i32 noundef 0, ptr noundef null, i32 noundef 8) #7
  br label %.thread

.thread:                                          ; preds = %BufferGetPage.exit, %._crit_edge
  %.2 = phi i32 [ %28, %._crit_edge ], [ %6, %BufferGetPage.exit ]
  ret i32 %.2
}